Certificate:
    Data:
        Version: 3 (0x2)
        Serial Number:
            75:26:b3:95:8d:d0:e9:aa:a1:a9:1c:d1:08:dd:f2:44:fe:7d:11:99
        Signature Algorithm: sha256WithRSAEncryption
        Issuer: C=CN, ST=SHANXI, O=XDU, OU=xdusec, CN=test/emailAddress=xdusec@test.com
        Validity
            Not Before: May 13 13:26:55 2021 GMT
            Not After : May 13 13:26:55 2022 GMT
        Subject: C=CN, ST=SHANXI, O=XDU, OU=xdusec, CN=client/emailAddress=client@test.com
        Subject Public Key Info:
            Public Key Algorithm: rsaEncryption
                RSA Public-Key: (1024 bit)
                Modulus:
                    00:b3:e0:a0:04:78:61:ae:fe:42:2a:db:7f:18:5c:
                    2e:ce:41:82:6c:29:67:bd:69:a3:4e:13:13:7a:23:
                    17:26:fc:92:27:31:bf:5e:71:46:49:cb:bf:d8:d2:
                    bf:dd:3f:03:94:84:9c:57:73:66:96:0b:13:d9:2d:
                    6f:41:16:35:cf:08:dd:9c:10:7d:54:76:ad:78:fe:
                    d5:bd:ce:47:89:3b:09:d3:d2:42:c3:b0:b4:28:37:
                    e5:34:af:12:96:c7:d2:af:89:aa:59:79:05:a5:ce:
                    15:e9:20:7b:2f:e4:bc:63:30:f1:4c:f7:f7:d9:95:
                    4f:6d:20:01:3c:f4:80:47:ed
                Exponent: 65537 (0x10001)
        X509v3 extensions:
            X509v3 Basic Constraints: 
                CA:FALSE
            Netscape Comment: 
                OpenSSL Generated Certificate
            X509v3 Subject Key Identifier: 
                D1:FE:1F:DA:59:10:7A:1E:50:B7:C2:D0:A8:70:EC:6F:56:5D:F2:7B
            X509v3 Authority Key Identifier: 
                keyid:C7:FA:A6:F9:B8:7C:19:F3:4C:B3:20:97:D8:9D:25:3C:7E:99:2B:61

    Signature Algorithm: sha256WithRSAEncryption
         cb:64:b5:a3:2c:cc:c7:0d:29:95:0d:73:16:e8:3b:36:ad:81:
         c8:dd:f3:bc:82:65:69:a0:a1:a9:9f:b1:ad:db:24:f2:68:68:
         5a:7e:65:e8:91:43:23:16:2a:4d:6e:e4:a9:a5:97:f0:ef:75:
         14:80:83:41:2d:21:82:5e:e1:bc:dd:ad:a8:7b:08:69:94:7a:
         3d:30:7b:78:45:fc:5c:05:c4:71:10:be:1c:7e:fc:1a:1f:eb:
         22:e2:f4:1a:4e:60:c7:7b:f8:7a:04:f9:03:6e:04:65:41:1f:
         8c:ab:e5:61:d9:92:1b:74:f1:ed:d7:ca:e5:e8:05:91:b8:78:
         7e:e2:27:44:25:23:ca:86:b1:75:db:ff:52:09:db:89:23:a9:
         00:f8:a6:ec:24:13:0f:a4:b8:72:b2:aa:43:cf:a0:97:e3:fc:
         08:17:28:0f:77:c1:99:03:d7:b4:c9:35:3d:c7:d0:ae:4f:76:
         df:65:bf:41:39:8c:59:df:aa:18:fd:23:c5:8d:ed:52:8f:bd:
         69:22:84:46:8c:a2:ba:94:fc:49:50:0c:fd:e5:42:f9:92:09:
         54:2e:f1:97:96:ee:79:e6:80:78:bc:7f:3b:e9:de:01:99:62:
         aa:7c:d5:7f:38:41:15:ce:da:a7:31:33:c9:28:47:58:62:2d:
         6c:02:07:ae
-----BEGIN CERTIFICATE-----
MIIDXzCCAkegAwIBAgIUdSazlY3Q6aqhqRzRCN3yRP59EZkwDQYJKoZIhvcNAQEL
BQAwbDELMAkGA1UEBhMCQ04xDzANBgNVBAgMBlNIQU5YSTEMMAoGA1UECgwDWERV
MQ8wDQYDVQQLDAZ4ZHVzZWMxDTALBgNVBAMMBHRlc3QxHjAcBgkqhkiG9w0BCQEW
D3hkdXNlY0B0ZXN0LmNvbTAeFw0yMTA1MTMxMzI2NTVaFw0yMjA1MTMxMzI2NTVa
MG4xCzAJBgNVBAYTAkNOMQ8wDQYDVQQIDAZTSEFOWEkxDDAKBgNVBAoMA1hEVTEP
MA0GA1UECwwGeGR1c2VjMQ8wDQYDVQQDDAZjbGllbnQxHjAcBgkqhkiG9w0BCQEW
D2NsaWVudEB0ZXN0LmNvbTCBnzANBgkqhkiG9w0BAQEFAAOBjQAwgYkCgYEAs+Cg
BHhhrv5CKtt/GFwuzkGCbClnvWmjThMTeiMXJvySJzG/XnFGScu/2NK/3T8DlISc
V3NmlgsT2S1vQRY1zwjdnBB9VHateP7Vvc5HiTsJ09JCw7C0KDflNK8SlsfSr4mq
WXkFpc4V6SB7L+S8YzDxTPf32ZVPbSABPPSAR+0CAwEAAaN7MHkwCQYDVR0TBAIw
ADAsBglghkgBhvhCAQ0EHxYdT3BlblNTTCBHZW5lcmF0ZWQgQ2VydGlmaWNhdGUw
HQYDVR0OBBYEFNH+H9pZEHoeULfC0Khw7G9WXfJ7MB8GA1UdIwQYMBaAFMf6pvm4
fBnzTLMgl9idJTx+mSthMA0GCSqGSIb3DQEBCwUAA4IBAQDLZLWjLMzHDSmVDXMW
6Ds2rYHI3fO8gmVpoKGpn7Gt2yTyaGhafmXokUMjFipNbuSppZfw73UUgINBLSGC
XuG83a2oewhplHo9MHt4RfxcBcRxEL4cfvwaH+si4vQaTmDHe/h6BPkDbgRlQR+M
q+Vh2ZIbdPHt18rl6AWRuHh+4idEJSPKhrF12/9SCduJI6kA+KbsJBMPpLhysqpD
z6CX4/wIFygPd8GZA9e0yTU9x9CuT3bfZb9BOYxZ36oY/SPFje1Sj71pIoRGjKK6
lPxJUAz95UL5kglULvGXlu555oB4vH876d4BmWKqfNV/OEEVztqnMTPJKEdYYi1s
Ageu
-----END CERTIFICATE-----
