Certificate:
    Data:
        Version: 3 (0x2)
        Serial Number:
            75:26:b3:95:8d:d0:e9:aa:a1:a9:1c:d1:08:dd:f2:44:fe:7d:11:98
        Signature Algorithm: sha256WithRSAEncryption
        Issuer: C=CN, ST=SHANXI, O=XDU, OU=xdusec, CN=test/emailAddress=xdusec@test.com
        Validity
            Not Before: May 13 13:25:59 2021 GMT
            Not After : May 13 13:25:59 2022 GMT
        Subject: C=CN, ST=SHANXI, O=XDU, OU=xdusec, CN=server/emailAddress=server@test.com
        Subject Public Key Info:
            Public Key Algorithm: rsaEncryption
                RSA Public-Key: (1024 bit)
                Modulus:
                    00:d1:57:bb:fe:50:55:80:19:46:cb:08:5b:1d:4d:
                    a2:ef:78:ab:11:a1:d1:11:9e:c4:fd:16:92:42:c3:
                    c7:b3:40:29:60:48:a3:a1:dd:fa:48:dc:da:93:e1:
                    86:a9:00:3c:04:4a:12:36:d8:d6:e5:23:4c:9a:29:
                    0e:c0:01:c1:b6:e1:ce:cb:b9:15:2b:e7:c4:88:be:
                    50:8e:b2:f7:c7:80:a1:6e:a3:85:d9:37:59:5c:51:
                    c0:c3:43:5e:32:f6:3d:68:b2:46:25:7c:50:a4:22:
                    b6:8f:9e:0f:6b:1f:57:da:9e:57:ea:e7:14:d1:ed:
                    e0:2b:c6:3f:74:5e:dc:64:1f
                Exponent: 65537 (0x10001)
        X509v3 extensions:
            X509v3 Basic Constraints: 
                CA:FALSE
            Netscape Comment: 
                OpenSSL Generated Certificate
            X509v3 Subject Key Identifier: 
                8D:0B:37:5F:4F:23:08:91:27:38:F3:F2:54:17:51:15:8E:65:DE:D8
            X509v3 Authority Key Identifier: 
                keyid:C7:FA:A6:F9:B8:7C:19:F3:4C:B3:20:97:D8:9D:25:3C:7E:99:2B:61

    Signature Algorithm: sha256WithRSAEncryption
         55:de:af:cc:a3:38:0d:95:e4:1b:0e:fd:35:b7:14:f9:16:04:
         f0:7d:4d:5b:10:1d:f1:09:00:c1:ec:c0:ba:f9:d6:73:19:3d:
         72:1e:1a:f7:13:e5:51:45:55:b5:34:06:85:87:05:e3:77:91:
         cc:a4:86:80:ec:37:67:fd:50:ec:44:58:3a:1d:23:3d:c6:67:
         41:c9:cf:0b:9b:0a:99:a5:19:1f:35:cb:af:fd:ee:ae:80:75:
         3b:9f:06:d8:c6:20:eb:bd:1a:3e:91:e8:a8:a8:b9:b9:7e:6e:
         66:47:6a:57:62:1b:70:fe:53:cb:9c:a2:d1:ad:e3:e8:70:d0:
         40:7d:f6:bb:7c:81:b3:32:82:4c:6d:47:20:33:35:2e:44:59:
         4f:ad:93:48:03:4a:f5:db:87:26:e5:25:59:22:bd:cb:4f:2f:
         88:bc:b8:99:22:0d:83:32:f0:54:0e:81:69:f3:87:d8:7f:e9:
         86:07:b2:b0:13:4e:98:0d:53:e0:8b:4c:db:10:a8:e2:49:d5:
         e6:e5:77:ac:38:02:d4:d3:9e:52:7a:a0:43:47:9c:15:0a:e0:
         c6:da:02:8b:4b:f7:1d:9b:2e:69:d6:b8:7a:34:e1:e8:54:ab:
         9c:f1:c0:c3:c6:a2:1e:17:8d:21:5e:27:fe:89:02:da:11:67:
         d9:7d:28:36
-----BEGIN CERTIFICATE-----
MIIDXzCCAkegAwIBAgIUdSazlY3Q6aqhqRzRCN3yRP59EZgwDQYJKoZIhvcNAQEL
BQAwbDELMAkGA1UEBhMCQ04xDzANBgNVBAgMBlNIQU5YSTEMMAoGA1UECgwDWERV
MQ8wDQYDVQQLDAZ4ZHVzZWMxDTALBgNVBAMMBHRlc3QxHjAcBgkqhkiG9w0BCQEW
D3hkdXNlY0B0ZXN0LmNvbTAeFw0yMTA1MTMxMzI1NTlaFw0yMjA1MTMxMzI1NTla
MG4xCzAJBgNVBAYTAkNOMQ8wDQYDVQQIDAZTSEFOWEkxDDAKBgNVBAoMA1hEVTEP
MA0GA1UECwwGeGR1c2VjMQ8wDQYDVQQDDAZzZXJ2ZXIxHjAcBgkqhkiG9w0BCQEW
D3NlcnZlckB0ZXN0LmNvbTCBnzANBgkqhkiG9w0BAQEFAAOBjQAwgYkCgYEA0Ve7
/lBVgBlGywhbHU2i73irEaHREZ7E/RaSQsPHs0ApYEijod36SNzak+GGqQA8BEoS
NtjW5SNMmikOwAHBtuHOy7kVK+fEiL5QjrL3x4ChbqOF2TdZXFHAw0NeMvY9aLJG
JXxQpCK2j54Pax9X2p5X6ucU0e3gK8Y/dF7cZB8CAwEAAaN7MHkwCQYDVR0TBAIw
ADAsBglghkgBhvhCAQ0EHxYdT3BlblNTTCBHZW5lcmF0ZWQgQ2VydGlmaWNhdGUw
HQYDVR0OBBYEFI0LN19PIwiRJzjz8lQXURWOZd7YMB8GA1UdIwQYMBaAFMf6pvm4
fBnzTLMgl9idJTx+mSthMA0GCSqGSIb3DQEBCwUAA4IBAQBV3q/MozgNleQbDv01
txT5FgTwfU1bEB3xCQDB7MC6+dZzGT1yHhr3E+VRRVW1NAaFhwXjd5HMpIaA7Ddn
/VDsRFg6HSM9xmdByc8LmwqZpRkfNcuv/e6ugHU7nwbYxiDrvRo+keioqLm5fm5m
R2pXYhtw/lPLnKLRrePocNBAffa7fIGzMoJMbUcgMzUuRFlPrZNIA0r124cm5SVZ
Ir3LTy+IvLiZIg2DMvBUDoFp84fYf+mGB7KwE06YDVPgi0zbEKjiSdXm5XesOALU
055SeqBDR5wVCuDG2gKLS/cdmy5p1rh6NOHoVKuc8cDDxqIeF40hXif+iQLaEWfZ
fSg2
-----END CERTIFICATE-----
