Certificate:
    Data:
        Version: 3 (0x2)
        Serial Number:
            75:26:b3:95:8d:d0:e9:aa:a1:a9:1c:d1:08:dd:f2:44:fe:7d:11:97
        Signature Algorithm: sha256WithRSAEncryption
        Issuer: C=CN, ST=SHANXI, O=XDU, OU=xdusec, CN=test/emailAddress=xdusec@test.com
        Validity
            Not Before: May 13 13:17:15 2021 GMT
            Not After : May 12 13:17:15 2024 GMT
        Subject: C=CN, ST=SHANXI, O=XDU, OU=xdusec, CN=test/emailAddress=xdusec@test.com
        Subject Public Key Info:
            Public Key Algorithm: rsaEncryption
                RSA Public-Key: (2048 bit)
                Modulus:
                    00:dd:63:74:6d:7b:fa:4a:35:b7:c2:7a:eb:45:db:
                    2b:24:ba:7f:5c:d3:56:85:18:07:64:64:3b:74:ee:
                    57:53:fd:9f:b8:d7:45:ab:d9:ed:15:1f:bf:3a:ba:
                    14:eb:0f:7e:b7:47:67:98:54:7a:35:2c:68:b6:9b:
                    61:2f:ac:7a:ab:1f:c1:58:c7:1b:f8:fe:70:8c:f7:
                    05:25:a6:ad:4b:21:33:c2:bf:73:24:77:42:92:f0:
                    96:09:3b:aa:9f:51:01:69:63:61:81:06:d9:a0:5f:
                    fc:df:61:1a:24:4e:ba:db:12:5e:da:c5:f4:d7:3c:
                    09:e2:97:44:65:ff:df:26:13:89:21:8c:33:0f:9d:
                    f5:73:b4:e2:c3:66:44:06:b1:ac:18:1c:06:24:36:
                    ab:f7:c7:f9:54:06:4d:57:2a:f2:17:d5:a5:37:d9:
                    3b:6d:e0:07:2e:ff:bd:22:92:a5:3b:90:5f:49:5b:
                    67:29:ae:c4:dd:c0:22:eb:19:54:d0:9e:9a:07:3e:
                    87:1a:ed:ea:d9:4a:e0:49:1d:e7:17:6c:05:34:da:
                    69:ec:46:b0:94:7e:c5:9f:94:bd:57:09:67:81:17:
                    51:b5:f9:8f:50:13:f3:1c:20:49:eb:9c:d0:e2:54:
                    ab:af:4e:4b:8d:1f:60:bf:bc:d5:1f:1f:4e:09:40:
                    2b:61
                Exponent: 65537 (0x10001)
        X509v3 extensions:
            X509v3 Subject Key Identifier: 
                C7:FA:A6:F9:B8:7C:19:F3:4C:B3:20:97:D8:9D:25:3C:7E:99:2B:61
            X509v3 Authority Key Identifier: 
                keyid:C7:FA:A6:F9:B8:7C:19:F3:4C:B3:20:97:D8:9D:25:3C:7E:99:2B:61

            X509v3 Basic Constraints: critical
                CA:TRUE
    Signature Algorithm: sha256WithRSAEncryption
         cb:01:a2:fe:96:76:70:be:c9:86:f8:48:20:0c:e3:1c:0d:03:
         76:f8:e3:9e:bd:7a:cb:3c:d6:6c:89:4d:80:3a:c2:f1:ac:eb:
         98:18:8a:1e:f9:20:ab:8e:d3:80:1f:51:52:4d:98:e0:f2:94:
         7d:0a:ac:ae:98:ee:90:0b:6c:73:18:46:4e:6e:25:e7:a1:a6:
         00:a6:8b:53:43:2f:0c:44:b4:d5:61:e0:04:87:d4:34:b8:c0:
         30:cb:30:1f:af:62:81:89:f3:6d:8c:85:8e:3c:b4:06:48:a2:
         f0:be:3a:4c:53:f2:08:ff:05:d5:6e:a8:de:83:19:14:b9:d8:
         10:cd:40:28:82:82:99:f3:0a:c7:e2:43:4c:69:80:04:df:01:
         90:85:12:64:cb:18:e6:ef:83:a8:83:4a:a6:ff:5e:e8:c0:82:
         db:b0:68:91:ef:11:ec:89:7d:d3:96:99:84:9f:8c:19:b0:ff:
         cc:e6:a2:aa:4c:ec:06:da:cd:4c:b5:42:59:7b:ea:4b:1b:43:
         d6:90:9b:a4:bd:c1:24:ef:ed:11:da:38:de:ee:39:9d:12:7f:
         03:01:72:6a:94:1a:04:13:86:f7:85:d5:f8:8f:ba:58:fe:cb:
         9c:b9:ec:e6:d8:cc:a8:d3:f6:20:6a:a4:d2:ac:45:bd:24:9a:
         e1:a0:80:73
-----BEGIN CERTIFICATE-----
MIIDuTCCAqGgAwIBAgIUdSazlY3Q6aqhqRzRCN3yRP59EZcwDQYJKoZIhvcNAQEL
BQAwbDELMAkGA1UEBhMCQ04xDzANBgNVBAgMBlNIQU5YSTEMMAoGA1UECgwDWERV
MQ8wDQYDVQQLDAZ4ZHVzZWMxDTALBgNVBAMMBHRlc3QxHjAcBgkqhkiG9w0BCQEW
D3hkdXNlY0B0ZXN0LmNvbTAeFw0yMTA1MTMxMzE3MTVaFw0yNDA1MTIxMzE3MTVa
MGwxCzAJBgNVBAYTAkNOMQ8wDQYDVQQIDAZTSEFOWEkxDDAKBgNVBAoMA1hEVTEP
MA0GA1UECwwGeGR1c2VjMQ0wCwYDVQQDDAR0ZXN0MR4wHAYJKoZIhvcNAQkBFg94
ZHVzZWNAdGVzdC5jb20wggEiMA0GCSqGSIb3DQEBAQUAA4IBDwAwggEKAoIBAQDd
Y3Rte/pKNbfCeutF2yskun9c01aFGAdkZDt07ldT/Z+410Wr2e0VH786uhTrD363
R2eYVHo1LGi2m2EvrHqrH8FYxxv4/nCM9wUlpq1LITPCv3Mkd0KS8JYJO6qfUQFp
Y2GBBtmgX/zfYRokTrrbEl7axfTXPAnil0Rl/98mE4khjDMPnfVztOLDZkQGsawY
HAYkNqv3x/lUBk1XKvIX1aU32Ttt4Acu/70ikqU7kF9JW2cprsTdwCLrGVTQnpoH
Poca7erZSuBJHecXbAU02mnsRrCUfsWflL1XCWeBF1G1+Y9QE/McIEnrnNDiVKuv
TkuNH2C/vNUfH04JQCthAgMBAAGjUzBRMB0GA1UdDgQWBBTH+qb5uHwZ80yzIJfY
nSU8fpkrYTAfBgNVHSMEGDAWgBTH+qb5uHwZ80yzIJfYnSU8fpkrYTAPBgNVHRMB
Af8EBTADAQH/MA0GCSqGSIb3DQEBCwUAA4IBAQDLAaL+lnZwvsmG+EggDOMcDQN2
+OOevXrLPNZsiU2AOsLxrOuYGIoe+SCrjtOAH1FSTZjg8pR9CqyumO6QC2xzGEZO
biXnoaYApotTQy8MRLTVYeAEh9Q0uMAwyzAfr2KBifNtjIWOPLQGSKLwvjpMU/II
/wXVbqjegxkUudgQzUAogoKZ8wrH4kNMaYAE3wGQhRJkyxjm74Oog0qm/17owILb
sGiR7xHsiX3TlpmEn4wZsP/M5qKqTOwG2s1MtUJZe+pLG0PWkJukvcEk7+0R2jje
7jmdEn8DAXJqlBoEE4b3hdX4j7pY/sucuezm2Myo0/YgaqTSrEW9JJrhoIBz
-----END CERTIFICATE-----
